; ModuleID = '38/1111.c'
source_filename = "38/1111.c"
target datalayout = "e-m:e-p270:32:32-p271:32:32-p272:64:64-i64:64-f80:128-n8:16:32:64-S128"
target triple = "x86_64-pc-linux-gnu"

@.str = private unnamed_addr constant [3 x i8] c"%d\00", align 1
@.str.1 = private unnamed_addr constant [4 x i8] c"%lf\00", align 1
@.str.2 = private unnamed_addr constant [7 x i8] c"%.5lf\0A\00", align 1

; Function Attrs: noinline nounwind uwtable
define dso_local i32 @main(i32 %0, i8** %1) #0 {
  %3 = alloca i32, align 4
  %4 = alloca i32, align 4
  %5 = alloca i8**, align 8
  %6 = alloca i32, align 4
  %7 = alloca i32, align 4
  %8 = alloca i32, align 4
  %9 = alloca i32, align 4
  %10 = alloca [1000 x double], align 16
  %11 = alloca double, align 8
  %12 = alloca double, align 8
  %13 = alloca double, align 8
  store i32 0, i32* %3, align 4
  store i32 %0, i32* %4, align 4
  store i8** %1, i8*** %5, align 8
  %14 = call i32 (i8*, ...) @__isoc99_scanf(i8* getelementptr inbounds ([3 x i8], [3 x i8]* @.str, i64 0, i64 0), i32* %6)
  store double 0.000000e+00, double* %11, align 8
  store double 0.000000e+00, double* %12, align 8
  store i32 0, i32* %8, align 4
  br label %15

15:                                               ; preds = %68, %2
  %16 = load i32, i32* %8, align 4
  %17 = load i32, i32* %6, align 4
  %18 = icmp slt i32 %16, %17
  br i1 %18, label %19, label %71

19:                                               ; preds = %15
  %20 = call i32 (i8*, ...) @__isoc99_scanf(i8* getelementptr inbounds ([3 x i8], [3 x i8]* @.str, i64 0, i64 0), i32* %7)
  store double 0.000000e+00, double* %11, align 8
  store double 0.000000e+00, double* %12, align 8
  store i32 0, i32* %9, align 4
  br label %21

21:                                               ; preds = %36, %19
  %22 = load i32, i32* %9, align 4
  %23 = load i32, i32* %7, align 4
  %24 = icmp slt i32 %22, %23
  br i1 %24, label %25, label %39

25:                                               ; preds = %21
  %26 = load i32, i32* %9, align 4
  %27 = sext i32 %26 to i64
  %28 = getelementptr inbounds [1000 x double], [1000 x double]* %10, i64 0, i64 %27
  %29 = call i32 (i8*, ...) @__isoc99_scanf(i8* getelementptr inbounds ([4 x i8], [4 x i8]* @.str.1, i64 0, i64 0), double* %28)
  %30 = load i32, i32* %9, align 4
  %31 = sext i32 %30 to i64
  %32 = getelementptr inbounds [1000 x double], [1000 x double]* %10, i64 0, i64 %31
  %33 = load double, double* %32, align 8
  %34 = load double, double* %11, align 8
  %35 = fadd double %34, %33
  store double %35, double* %11, align 8
  br label %36

36:                                               ; preds = %25
  %37 = load i32, i32* %9, align 4
  %38 = add nsw i32 %37, 1
  store i32 %38, i32* %9, align 4
  br label %21

39:                                               ; preds = %21
  store i32 0, i32* %9, align 4
  br label %40

40:                                               ; preds = %57, %39
  %41 = load i32, i32* %9, align 4
  %42 = load i32, i32* %7, align 4
  %43 = icmp slt i32 %41, %42
  br i1 %43, label %44, label %60

44:                                               ; preds = %40
  %45 = load i32, i32* %9, align 4
  %46 = sext i32 %45 to i64
  %47 = getelementptr inbounds [1000 x double], [1000 x double]* %10, i64 0, i64 %46
  %48 = load double, double* %47, align 8
  %49 = load double, double* %11, align 8
  %50 = load i32, i32* %7, align 4
  %51 = sitofp i32 %50 to double
  %52 = fdiv double %49, %51
  %53 = fsub double %48, %52
  %54 = call double @pow(double %53, double 2.000000e+00) #3
  %55 = load double, double* %12, align 8
  %56 = fadd double %55, %54
  store double %56, double* %12, align 8
  br label %57

57:                                               ; preds = %44
  %58 = load i32, i32* %9, align 4
  %59 = add nsw i32 %58, 1
  store i32 %59, i32* %9, align 4
  br label %40

60:                                               ; preds = %40
  %61 = load double, double* %12, align 8
  %62 = load i32, i32* %7, align 4
  %63 = sitofp i32 %62 to double
  %64 = fdiv double %61, %63
  %65 = call double @pow(double %64, double 5.000000e-01) #3
  store double %65, double* %13, align 8
  %66 = load double, double* %13, align 8
  %67 = call i32 (i8*, ...) @printf(i8* getelementptr inbounds ([7 x i8], [7 x i8]* @.str.2, i64 0, i64 0), double %66)
  br label %68

68:                                               ; preds = %60
  %69 = load i32, i32* %8, align 4
  %70 = add nsw i32 %69, 1
  store i32 %70, i32* %8, align 4
  br label %15

71:                                               ; preds = %15
  ret i32 0
}

declare dso_local i32 @__isoc99_scanf(i8*, ...) #1

; Function Attrs: nounwind
declare dso_local double @pow(double, double) #2

declare dso_local i32 @printf(i8*, ...) #1


!llvm.module.flags = !{!0}
!llvm.ident = !{!1}

!0 = !{i32 1, !"wchar_size", i32 4}
!1 = !{!"clang version 10.0.0-4ubuntu1 "}
